libpyside-python2.7.so.1.2:PySideQFlagsNew
libpyside-python2.7.so.1.2:PySideQFlagsRichCompare
libpyside-python2.7.so.1.2:_ZN6PySide12MetaFunction9newObjectEP7QObjecti
libpyside-python2.7.so.1.2:_ZN6PySide13SignalManager10emitSignalEP7QObjectPKcP7_object
libpyside-python2.7.so.1.2:_ZN6PySide13SignalManager11qt_metacallEP7QObjectN11QMetaObject4CallEiPPv
libpyside-python2.7.so.1.2:_ZN6PySide13SignalManager13addGlobalSlotEPKcP7_object
libpyside-python2.7.so.1.2:_ZN6PySide13SignalManager14globalReceiverEP7QObjectP7_object
libpyside-python2.7.so.1.2:_ZN6PySide13SignalManager14globalReceiverEv
libpyside-python2.7.so.1.2:_ZN6PySide13SignalManager17hasConnectionWithEPK7QObject
libpyside-python2.7.so.1.2:_ZN6PySide13SignalManager17retriveMetaObjectEP7_object
libpyside-python2.7.so.1.2:_ZN6PySide13SignalManager18registerMetaMethodEP7QObjectPKcN11QMetaMethod10MethodTypeE
libpyside-python2.7.so.1.2:_ZN6PySide13SignalManager20callPythonMetaMethodERK11QMetaMethodPPvP7_objectb
libpyside-python2.7.so.1.2:_ZN6PySide13SignalManager20countConnectionsWithEPK7QObject
libpyside-python2.7.so.1.2:_ZN6PySide13SignalManager20notifyGlobalReceiverEP7QObject
libpyside-python2.7.so.1.2:_ZN6PySide13SignalManager21addGlobalSlotGetIndexEPKcP7_object
libpyside-python2.7.so.1.2:_ZN6PySide13SignalManager21releaseGlobalReceiverEPK7QObjectPS1_
libpyside-python2.7.so.1.2:_ZN6PySide13SignalManager26registerMetaMethodGetIndexEP7QObjectPKcN11QMetaMethod10MethodTypeE
libpyside-python2.7.so.1.2:_ZN6PySide13SignalManager27globalReceiverConnectNotifyEP7QObjecti
libpyside-python2.7.so.1.2:_ZN6PySide13SignalManager30globalReceiverDisconnectNotifyEP7QObjecti
libpyside-python2.7.so.1.2:_ZN6PySide13SignalManager5clearEv
libpyside-python2.7.so.1.2:_ZN6PySide13SignalManager8instanceEv
libpyside-python2.7.so.1.2:_ZN6PySide13SignalManagerC1Ev
libpyside-python2.7.so.1.2:_ZN6PySide13SignalManagerC2Ev
libpyside-python2.7.so.1.2:_ZN6PySide13SignalManagerD1Ev
libpyside-python2.7.so.1.2:_ZN6PySide13SignalManagerD2Ev
libpyside-python2.7.so.1.2:_ZN6PySide15DestroyListener11qt_metacallEN11QMetaObject4CallEiPPv
libpyside-python2.7.so.1.2:_ZN6PySide15DestroyListener11qt_metacastEPKc
libpyside-python2.7.so.1.2:_ZN6PySide15DestroyListener17onObjectDestroyedEP7QObject
libpyside-python2.7.so.1.2:_ZN6PySide15DestroyListener6listenEP7QObject
libpyside-python2.7.so.1.2:_ZN6PySide15DestroyListener7destroyEv
libpyside-python2.7.so.1.2:_ZN6PySide15DestroyListener8instanceEv
libpyside-python2.7.so.1.2:_ZN6PySide15DestroyListenerC1EP7QObject
libpyside-python2.7.so.1.2:_ZN6PySide15DestroyListenerC2EP7QObject
libpyside-python2.7.so.1.2:_ZN6PySide15DestroyListenerD0Ev
libpyside-python2.7.so.1.2:_ZN6PySide15DestroyListenerD1Ev
libpyside-python2.7.so.1.2:_ZN6PySide15DestroyListenerD2Ev
libpyside-python2.7.so.1.2:_ZN6PySide15PyObjectWrapperC1EP7_object
libpyside-python2.7.so.1.2:_ZN6PySide15PyObjectWrapperC1ERKS0_
libpyside-python2.7.so.1.2:_ZN6PySide15PyObjectWrapperC1Ev
libpyside-python2.7.so.1.2:_ZN6PySide15PyObjectWrapperC2EP7_object
libpyside-python2.7.so.1.2:_ZN6PySide15PyObjectWrapperC2ERKS0_
libpyside-python2.7.so.1.2:_ZN6PySide15PyObjectWrapperC2Ev
libpyside-python2.7.so.1.2:_ZN6PySide15PyObjectWrapperD1Ev
libpyside-python2.7.so.1.2:_ZN6PySide15PyObjectWrapperD2Ev
libpyside-python2.7.so.1.2:_ZN6PySide15PyObjectWrapperaSERKS0_
libpyside-python2.7.so.1.2:_ZN6PySide16fillQtPropertiesEP7_objectPK11QMetaObjectS1_PPKcj
libpyside-python2.7.so.1.2:_ZN6PySide16getSizeOfQObjectEP13SbkObjectType
libpyside-python2.7.so.1.2:_ZN6PySide18initQObjectSubTypeEP13SbkObjectTypeP7_objectS3_
libpyside-python2.7.so.1.2:_ZN6PySide19runCleanupFunctionsEv
libpyside-python2.7.so.1.2:_ZN6PySide20getWrapperForQObjectEP7QObjectP13SbkObjectType
libpyside-python2.7.so.1.2:_ZN6PySide21initDynamicMetaObjectEP13SbkObjectTypePK11QMetaObject
libpyside-python2.7.so.1.2:_ZN6PySide21initDynamicMetaObjectEP13SbkObjectTypePK11QMetaObjectRKm
libpyside-python2.7.so.1.2:_ZN6PySide21nextQObjectMemoryAddrEv
libpyside-python2.7.so.1.2:_ZN6PySide22getMetaDataFromQObjectEP7QObjectP7_objectS3_
libpyside-python2.7.so.1.2:_ZN6PySide23destroyQCoreApplicationEv
libpyside-python2.7.so.1.2:_ZN6PySide23registerCleanupFunctionEPFvvE
libpyside-python2.7.so.1.2:_ZN6PySide24setNextQObjectMemoryAddrEPv
libpyside-python2.7.so.1.2:_ZN6PySide4initEP7_object
libpyside-python2.7.so.1.2:_ZN6PySide6QFlags6createEPKcP15PyNumberMethods
libpyside-python2.7.so.1.2:_ZN6PySide6QFlags8getValueEP18PySideQFlagsObject
libpyside-python2.7.so.1.2:_ZN6PySide6QFlags9newObjectElP11_typeobject
libpyside-python2.7.so.1.2:_ZN6PySide6Signal10initializeEP12PySideSignalP7_objectS4_
libpyside-python2.7.so.1.2:_ZN6PySide6Signal10isQtSignalEPKc
libpyside-python2.7.so.1.2:_ZN6PySide6Signal12getSignatureEP20PySideSignalInstance
libpyside-python2.7.so.1.2:_ZN6PySide6Signal13checkQtSignalEPKc
libpyside-python2.7.so.1.2:_ZN6PySide6Signal15registerSignalsEP13SbkObjectTypePK11QMetaObject
libpyside-python2.7.so.1.2:_ZN6PySide6Signal18addSignalToWrapperEP13SbkObjectTypePKcP12PySideSignal
libpyside-python2.7.so.1.2:_ZN6PySide6Signal18updateSourceObjectEP7_object
libpyside-python2.7.so.1.2:_ZN6PySide6Signal19newObjectFromMethodEP7_objectRK5QListI11QMetaMethodE
libpyside-python2.7.so.1.2:_ZN6PySide6Signal20getCallbackSignatureEPKcP7QObjectP7_objectb
libpyside-python2.7.so.1.2:_ZN6PySide6Signal9checkTypeEP7_object
libpyside-python2.7.so.1.2:_ZN6PySide6Signal9getObjectEP20PySideSignalInstance
libpyside-python2.7.so.1.2:_ZN6PySide6Signal9newObjectEPKcz
libpyside-python2.7.so.1.2:_ZN6PySide7WeakRef6createEP7_objectPFvPvES3_
libpyside-python2.7.so.1.2:_ZN6PySide8Property11setTypeNameEP14PySidePropertyPKc
libpyside-python2.7.so.1.2:_ZN6PySide8Property11setUserDataEP14PySidePropertyPv
libpyside-python2.7.so.1.2:_ZN6PySide8Property13getNotifyNameEP14PySideProperty
libpyside-python2.7.so.1.2:_ZN6PySide8Property14isPropertyTypeEP7_object
libpyside-python2.7.so.1.2:_ZN6PySide8Property18setMetaCallHandlerEP14PySidePropertyPFvS2_P7_objectN11QMetaObject4CallEPPvE
libpyside-python2.7.so.1.2:_ZN6PySide8Property8getValueEP14PySidePropertyP7_object
libpyside-python2.7.so.1.2:_ZN6PySide8Property8setValueEP14PySidePropertyP7_objectS4_
libpyside-python2.7.so.1.2:_ZN6PySide8Property8userDataEP14PySideProperty
libpyside-python2.7.so.1.2:_ZN6PySide8Property9checkTypeEP7_object
libpyside-python2.7.so.1.2:_ZN6PySide8Property9getObjectEP7_objectS2_
libpyside-python2.7.so.1.2:_ZN6PySide8inheritsEP11_typeobjectPKc
libpyside-python2.7.so.1.2:_ZN6PySide9ClassInfo6getMapEP15PySideClassInfo
libpyside-python2.7.so.1.2:_ZN6PySide9ClassInfo9checkTypeEP7_object
libpyside-python2.7.so.1.2:_ZN6PySidelsER11QDataStreamRKNS_15PyObjectWrapperE
libpyside-python2.7.so.1.2:_ZN6PySidersER11QDataStreamRNS_15PyObjectWrapperE
libpyside-python2.7.so.1.2:_ZNK6PySide13SignalManager23globalReceiverSlotIndexEP7QObjectPKc
libpyside-python2.7.so.1.2:_ZNK6PySide15DestroyListener10metaObjectEv
libpyside-python2.7.so.1.2:_ZNK6PySide15PyObjectWrappercvP7_objectEv
